(dp0
S'diabetes.org fat'
p1
I89500
sS'fifa.com cancer'
p2
I2780
sS'fifa.com treadmill'
p3
I14
sS'diabetes.org dental'
p4
I49900
sS'fifa.com liverpool'
p5
I14400
sS'fifa.com health+nutritional'
p6
I3170
sS'diabetes.org walkers'
p7
I3430
sS'fifa.com pc+windows'
p8
I50
sS'diabetes.org ball+league'
p9
I16
sS'fifa.com uefa'
p10
I218000
sS'diabetes.org calories+protein'
p11
I42700
sS'diabetes.org nba'
p12
I38
sS'fifa.com aerobics'
p13
I1
sS'fifa.com bios'
p14
I26
sS'fifa.com premiership'
p15
I40400
sS'diabetes.org diet'
p16
I112000
sS'diabetes.org buffer+code'
p17
I0
sS'diabetes.org aids'
p18
I14400
sS'fifa.com module'
p19
I85400
sS'diabetes.org acupuncture'
p20
I71
sS'diabetes.org perl'
p21
I6
sS'diabetes.org fans+football'
p22
I28
sS'diabetes.org card+drivers'
p23
I30700
sS'diabetes.org agp+card'
p24
I0
sS'diabetes.org dairy+milk'
p25
I20800
sS'fifa.com dunks'
p26
I1
sS'fifa.com wnba'
p27
I7
sS'diabetes.org cholesterol'
p28
I32500
sS'diabetes.org shareware'
p29
I0
sS'fifa.com fat+muscle'
p30
I31
sS'fifa.com cpu'
p31
I28
sS'fifa.com array+code'
p32
I10
sS'diabetes.org application+windows'
p33
I47
sS'fifa.com ball+referee'
p34
I255000
sS'fifa.com pacers'
p35
I10
sS'diabetes.org java'
p36
I80
sS'fifa.com card+graphics'
p37
I3400
sS'fifa.com hiv'
p38
I2130
sS'diabetes.org health+nutritional'
p39
I97600
sS'diabetes.org patients+treatment'
p40
I139000
sS'diabetes.org radiation+treatment'
p41
I3760
sS'fifa.com shaq'
p42
I9
sS'fifa.com mls'
p43
I53100
sS'fifa.com bayern'
p44
I22100
sS'fifa.com blazers+game'
p45
I4790
sS'fifa.com hospital+medical'
p46
I13200
sS'diabetes.org hiv'
p47
I25000
sS'diabetes.org medical+patient'
p48
I161000
sS'fifa.com diabetes'
p49
I89
sS'fifa.com laettner'
p50
I0
sS'diabetes.org eating+fat'
p51
I131000
sS'diabetes.org audio+file'
p52
I11200
sS'diabetes.org avg+nba'
p53
I5
sS'diabetes.org cpu'
p54
I7
sS'fifa.com medical+patient'
p55
I9860
sS'fifa.com diet'
p56
I14000
sS'fifa.com hooliganism'
p57
I22
sS'diabetes.org fat+muscle'
p58
I7910
sS'fifa.com squats'
p59
I10
sS'diabetes.org vb'
p60
I19
sS'fifa.com teams'
p61
I447000
sS'diabetes.org calories+fat'
p62
I128000
sS'diabetes.org soccer'
p63
I1850
sS'diabetes.org carb+carbs'
p64
I37800
sS'fifa.com carb+carbs'
p65
I1
sS'diabetes.org card+graphics'
p66
I47
sS'fifa.com walkers'
p67
I11
sS'diabetes.org pc+windows'
p68
I75
sS'fifa.com aerobic'
p69
I20
sS'fifa.com insulin'
p70
I3
sS'diabetes.org eating+weight'
p71
I137000
sS'fifa.com fans+football'
p72
I701000
sS'fifa.com soccer'
p73
I476000
sS'fifa.com knicks'
p74
I9
sS'fifa.com acupuncture'
p75
I1
sS'diabetes.org challenge+walk'
p76
I67300
sS'fifa.com java'
p77
I10300
sS'fifa.com '
p78
I813000
sS'diabetes.org aerobic'
p79
I6690
sS'fifa.com agp+card'
p80
I0
sS'fifa.com applet+code'
p81
I1
sS'diabetes.org diabetes'
p82
I303000
sS'diabetes.org applet+code'
p83
I0
sS'diabetes.org fitness'
p84
I82900
sS'diabetes.org heart+surgery'
p85
I35800
sS'fifa.com application+windows'
p86
I98800
sS'diabetes.org multimedia'
p87
I44
sS'fifa.com eating+fat'
p88
I40
sS'fifa.com nurse'
p89
I6370
sS'diabetes.org bytes+code'
p90
I0
sS'fifa.com health+medicine'
p91
I14900
sS'diabetes.org ball+referee'
p92
I7
sS'diabetes.org avg+league'
p93
I1
sS'diabetes.org '
p94
I1640000
sS'fifa.com blazers'
p95
I3690
sS'fifa.com doctor+health'
p96
I13100
sS'diabetes.org aspirin+cholesterol'
p97
I21200
sS'fifa.com avg+league'
p98
I23
sS'diabetes.org hospital+patients'
p99
I56600
sS'diabetes.org wnba'
p100
I17
sS'fifa.com cholesterol'
p101
I8
sS'fifa.com sabonis'
p102
I0
sS'diabetes.org pacers'
p103
I8
sS'diabetes.org eating+protein'
p104
I45500
sS'diabetes.org module'
p105
I76
sS'diabetes.org array+code'
p106
I5
sS'diabetes.org insulin'
p107
I95700
sS'fifa.com leeds'
p108
I1760
sS'fifa.com bytes+code'
p109
I0
sS'fifa.com avg+nba'
p110
I25
sS'diabetes.org health+medicine'
p111
I121000
sS'diabetes.org treadmill'
p112
I3570
sS'fifa.com avi+file'
p113
I0
sS'diabetes.org doctor+medical'
p114
I88200
sS'diabetes.org championship+team'
p115
I23
sS'fifa.com ball+team'
p116
I428000
sS'fifa.com buffer+code'
p117
I1
sS'fifa.com juventus'
p118
I11600
sS'diabetes.org laker'
p119
I5
sS'fifa.com fifa'
p120
I699000
sS'fifa.com laker'
p121
I2
sS'fifa.com doctor+medical'
p122
I7340
sS'fifa.com game+league'
p123
I303000
sS'diabetes.org walking'
p124
I10800
sS'fifa.com patients+treatment'
p125
I39
sS'fifa.com card+drivers'
p126
I45
sS'fifa.com championship+team'
p127
I298000
sS'fifa.com ncaa'
p128
I74
sS'fifa.com calories+fat'
p129
I8
sS'diabetes.org ncaa'
p130
I8
sS'diabetes.org game+league'
p131
I2000
sS'diabetes.org calories+weight'
p132
I125000
sS'diabetes.org blazers+game'
p133
I3
sS'fifa.com kobe'
p134
I2310
sS'fifa.com vb'
p135
I92
sS'diabetes.org aspirin+cardiologist'
p136
I21100
sS'diabetes.org ball+team'
p137
I100
sS'diabetes.org medical+treatment'
p138
I104000
sS'fifa.com aids'
p139
I4620
sS'fifa.com medical+treatment'
p140
I12300
sS'fifa.com multimedia'
p141
I2500
sS'diabetes.org club+league'
p142
I26
sS'diabetes.org blood+insulin'
p143
I59700
sS'diabetes.org squats'
p144
I68
sS'fifa.com audio+file'
p145
I12
sS'diabetes.org cholesterol+doctor'
p146
I33700
sS'fifa.com club+league'
p147
I385000
sS'diabetes.org cancer'
p148
I20000
sS'fifa.com hospital+patients'
p149
I44
sS'fifa.com fitness'
p150
I5020
sS'fifa.com lazio'
p151
I4140
sS'diabetes.org blood+heart'
p152
I125000
sS'diabetes.org doctor+health'
p153
I140000
sS'fifa.com ball+league'
p154
I326000
sS'diabetes.org acid+diets'
p155
I11000
sS'diabetes.org exercise+weight'
p156
I135000
sS'diabetes.org hospital+medical'
p157
I128000
sS'fifa.com shareware'
p158
I0
sS'diabetes.org workout'
p159
I3630
sS'diabetes.org bodybuilding+protein'
p160
I40
sS'diabetes.org card+pc'
p161
I7600
sS'fifa.com bundesliga'
p162
I53500
sS'fifa.com nba'
p163
I51800
sS'fifa.com card+pc'
p164
I121000
sS'diabetes.org aerobics'
p165
I2300
sS'diabetes.org cardiology'
p166
I4760
sS'fifa.com perl'
p167
I27
sS'diabetes.org exercise+protein'
p168
I38200
sS'diabetes.org nurse'
p169
I9980
sS'fifa.com rebounds'
p170
I40
sS'diabetes.org avi+file'
p171
I0
sS'fifa.com cardiology'
p172
I13
sS'diabetes.org bios'
p173
I16
sS'diabetes.org teams'
p174
I4750
sS'fifa.com shaquille'
p175
I89
sS'diabetes.org cholesterol+lipitor'
p176
I14100
s.