(dp0
S'diabetes.org fat'
p1
I89500
sS'fifa.com cancer'
p2
I2780
sS'fifa.com treadmill'
p3
I14
sS'diabetes.org dental'
p4
I49900
sS'fifa.com fitness'
p5
I5020
sS'fifa.com health+nutritional'
p6
I3170
sS'diabetes.org walkers'
p7
I3430
sS'fifa.com pc+windows'
p8
I50
sS'fifa.com uefa'
p9
I218000
sS'diabetes.org calories+protein'
p10
I42700
sS'diabetes.org nba'
p11
I38
sS'fifa.com aerobics'
p12
I1
sS'diabetes.org fans+football'
p13
I28
sS'fifa.com premiership'
p14
I40400
sS'diabetes.org diet'
p15
I112000
sS'diabetes.org buffer+code'
p16
I0
sS'diabetes.org aids'
p17
I14400
sS'fifa.com module'
p18
I85400
sS'diabetes.org acupuncture'
p19
I71
sS'diabetes.org championship+team'
p20
I23
sS'diabetes.org card+drivers'
p21
I30700
sS'diabetes.org agp+card'
p22
I0
sS'diabetes.org dairy+milk'
p23
I20800
sS'fifa.com dunks'
p24
I1
sS'fifa.com wnba'
p25
I7
sS'diabetes.org cholesterol'
p26
I32500
sS'diabetes.org shareware'
p27
I0
sS'fifa.com fat+muscle'
p28
I31
sS'fifa.com cpu'
p29
I28
sS'fifa.com array+code'
p30
I10
sS'fifa.com patients+treatment'
p31
I39
sS'fifa.com ball+referee'
p32
I255000
sS'fifa.com card+drivers'
p33
I45
sS'diabetes.org java'
p34
I80
sS'fifa.com card+graphics'
p35
I3400
sS'fifa.com hiv'
p36
I2130
sS'diabetes.org health+nutritional'
p37
I97600
sS'diabetes.org patients+treatment'
p38
I139000
sS'fifa.com shaq'
p39
I9
sS'fifa.com vb'
p40
I92
sS'diabetes.org card+graphics'
p41
I47
sS'fifa.com laettner'
p42
I0
sS'fifa.com bayern'
p43
I22100
sS'fifa.com avg+league'
p44
I23
sS'fifa.com hospital+medical'
p45
I13200
sS'fifa.com calories+fat'
p46
I8
sS'diabetes.org medical+patient'
p47
I161000
sS'fifa.com diabetes'
p48
I89
sS'diabetes.org perl'
p49
I6
sS'diabetes.org eating+fat'
p50
I131000
sS'diabetes.org audio+file'
p51
I11200
sS'diabetes.org cpu'
p52
I7
sS'fifa.com medical+patient'
p53
I9860
sS'fifa.com diet'
p54
I14000
sS'fifa.com hooliganism'
p55
I22
sS'diabetes.org fat+muscle'
p56
I7910
sS'fifa.com squats'
p57
I10
sS'diabetes.org vb'
p58
I19
sS'fifa.com teams'
p59
I447000
sS'fifa.com sabonis'
p60
I0
sS'diabetes.org challenge+walk'
p61
I67300
sS'diabetes.org carb+carbs'
p62
I37800
sS'fifa.com carb+carbs'
p63
I1
sS'fifa.com mls'
p64
I53100
sS'fifa.com walkers'
p65
I11
sS'diabetes.org pc+windows'
p66
I75
sS'fifa.com aerobic'
p67
I20
sS'fifa.com insulin'
p68
I3
sS'diabetes.org eating+weight'
p69
I137000
sS'fifa.com fans+football'
p70
I701000
sS'fifa.com soccer'
p71
I476000
sS'fifa.com knicks'
p72
I9
sS'fifa.com acupuncture'
p73
I1
sS'diabetes.org soccer'
p74
I1850
sS'diabetes.org blood+heart'
p75
I125000
sS'fifa.com java'
p76
I10300
sS'fifa.com '
p77
I813000
sS'fifa.com agp+card'
p78
I0
sS'fifa.com applet+code'
p79
I1
sS'diabetes.org diabetes'
p80
I303000
sS'diabetes.org applet+code'
p81
I0
sS'diabetes.org fitness'
p82
I82900
sS'diabetes.org heart+surgery'
p83
I35800
sS'fifa.com lazio'
p84
I4140
sS'fifa.com application+windows'
p85
I98800
sS'diabetes.org multimedia'
p86
I44
sS'fifa.com eating+fat'
p87
I40
sS'fifa.com nurse'
p88
I6370
sS'diabetes.org bytes+code'
p89
I0
sS'fifa.com health+medicine'
p90
I14900
sS'diabetes.org ball+referee'
p91
I7
sS'diabetes.org avg+league'
p92
I1
sS'diabetes.org '
p93
I1640000
sS'fifa.com blazers'
p94
I3690
sS'fifa.com doctor+health'
p95
I13100
sS'diabetes.org aspirin+cholesterol'
p96
I21200
sS'fifa.com blazers+game'
p97
I4790
sS'diabetes.org health+medicine'
p98
I121000
sS'fifa.com bios'
p99
I26
sS'fifa.com cholesterol'
p100
I8
sS'diabetes.org calories+fat'
p101
I128000
sS'diabetes.org pacers'
p102
I8
sS'diabetes.org eating+protein'
p103
I45500
sS'diabetes.org module'
p104
I76
sS'diabetes.org array+code'
p105
I5
sS'diabetes.org insulin'
p106
I95700
sS'fifa.com leeds'
p107
I1760
sS'fifa.com bytes+code'
p108
I0
sS'fifa.com avg+nba'
p109
I25
sS'diabetes.org hospital+patients'
p110
I56600
sS'diabetes.org treadmill'
p111
I3570
sS'fifa.com avi+file'
p112
I0
sS'diabetes.org doctor+medical'
p113
I88200
sS'fifa.com ball+team'
p114
I428000
sS'fifa.com buffer+code'
p115
I1
sS'fifa.com juventus'
p116
I11600
sS'diabetes.org laker'
p117
I5
sS'fifa.com fifa'
p118
I699000
sS'fifa.com laker'
p119
I2
sS'fifa.com doctor+medical'
p120
I7340
sS'fifa.com aids'
p121
I4620
sS'diabetes.org walking'
p122
I10800
sS'diabetes.org avg+nba'
p123
I5
sS'fifa.com pacers'
p124
I10
sS'diabetes.org radiation+treatment'
p125
I3760
sS'fifa.com ncaa'
p126
I74
sS'diabetes.org hiv'
p127
I25000
sS'diabetes.org ncaa'
p128
I8
sS'diabetes.org game+league'
p129
I2000
sS'diabetes.org application+windows'
p130
I47
sS'diabetes.org calories+weight'
p131
I125000
sS'diabetes.org blazers+game'
p132
I3
sS'diabetes.org wnba'
p133
I17
sS'fifa.com kobe'
p134
I2310
sS'diabetes.org aerobic'
p135
I6690
sS'diabetes.org avi+file'
p136
I0
sS'diabetes.org ball+team'
p137
I100
sS'diabetes.org medical+treatment'
p138
I104000
sS'fifa.com game+league'
p139
I303000
sS'fifa.com medical+treatment'
p140
I12300
sS'fifa.com multimedia'
p141
I2500
sS'diabetes.org club+league'
p142
I26
sS'diabetes.org blood+insulin'
p143
I59700
sS'diabetes.org squats'
p144
I68
sS'fifa.com audio+file'
p145
I12
sS'diabetes.org cholesterol+doctor'
p146
I33700
sS'fifa.com club+league'
p147
I385000
sS'diabetes.org cancer'
p148
I20000
sS'fifa.com hospital+patients'
p149
I44
sS'fifa.com liverpool'
p150
I14400
sS'fifa.com championship+team'
p151
I298000
sS'diabetes.org ball+league'
p152
I16
sS'diabetes.org doctor+health'
p153
I140000
sS'fifa.com ball+league'
p154
I326000
sS'diabetes.org acid+diets'
p155
I11000
sS'diabetes.org exercise+weight'
p156
I135000
sS'diabetes.org hospital+medical'
p157
I128000
sS'fifa.com shareware'
p158
I0
sS'diabetes.org workout'
p159
I3630
sS'diabetes.org bodybuilding+protein'
p160
I40
sS'diabetes.org card+pc'
p161
I7600
sS'fifa.com bundesliga'
p162
I53500
sS'fifa.com nba'
p163
I51800
sS'fifa.com card+pc'
p164
I121000
sS'diabetes.org aerobics'
p165
I2300
sS'diabetes.org cardiology'
p166
I4760
sS'fifa.com perl'
p167
I27
sS'diabetes.org exercise+protein'
p168
I38200
sS'diabetes.org nurse'
p169
I9980
sS'fifa.com rebounds'
p170
I40
sS'diabetes.org aspirin+cardiologist'
p171
I21100
sS'fifa.com cardiology'
p172
I13
sS'diabetes.org bios'
p173
I16
sS'diabetes.org teams'
p174
I4750
sS'fifa.com shaquille'
p175
I89
sS'diabetes.org cholesterol+lipitor'
p176
I14100
s.